; Function Attrs: null_pointer_is_valid sspstrong uwtable
define internal i32 @dissect_t38_Data_Field_item(ptr noundef %0, i32 noundef %1, ptr noundef %2, ptr noundef %3, i32 noundef %4) #0 {
  %6 = load i32, ptr @ett_t38_Data_Field_item, align 4
  %7 = tail call i32 @dissect_per_sequence(ptr noundef %0, i32 noundef %1, ptr noundef %2, ptr noundef %3, i32 noundef %4, i32 noundef %6, ptr noundef nonnull @Data_Field_item_sequence)
  %.b = load i1, ptr @primary_part, align 1
  br i1 %.b, label %11, label %8

8:                                                ; preds = %5
  %9 = load i32, ptr @Data_Field_item_num, align 4
  %10 = add i32 %9, 1
  store i32 %10, ptr @Data_Field_item_num, align 4
  br label %11

11:                                               ; preds = %8, %5
  ret i32 %7
}